target datalayout = "e-m:e-p270:32:32-p271:32:32-p272:64:64-i64:64-i128:128-f80:128-n8:16:32:64-S128"
target triple = "x86_64-pc-linux-gnu"

%struct.HASHCTL = type { i64, i64, i64, i64, i64, i64, ptr, ptr, ptr, ptr, ptr, ptr }
%struct.RewriteStateData = type { ptr, ptr, ptr, ptr, i32, i8, i32, i32, i32, i32, ptr, i64, ptr, ptr, ptr, i32 }
%struct.RelationData = type { %struct.RelFileLocator, ptr, i32, i32, i8, i8, i8, i8, i8, i32, i32, i32, i32, ptr, ptr, i32, %struct.LockInfoData, ptr, ptr, ptr, ptr, ptr, i8, ptr, ptr, ptr, ptr, ptr, ptr, i32, ptr, i8, ptr, ptr, i32, i8, i32, ptr, i8, ptr, ptr, ptr, ptr, ptr, ptr, ptr, i32, ptr, ptr, ptr, ptr, ptr, ptr, ptr, ptr, ptr, ptr, ptr, ptr, ptr, ptr, ptr, ptr, ptr, ptr, ptr, i32, i8, ptr }
%struct.RelFileLocator = type { i32, i32, i32 }
%struct.LockInfoData = type { %struct.LockRelId }
%struct.LockRelId = type { i32, i32 }
%struct.FormData_pg_class = type { i32, %struct.nameData, i32, i32, i32, i32, i32, i32, i32, i32, float, i32, i32, i8, i8, i8, i8, i16, i16, i8, i8, i8, i8, i8, i8, i8, i8, i32, i32, i32 }
%struct.nameData = type { [64 x i8] }
%struct.StdRdOptions = type { i32, i32, i32, %struct.AutoVacOpts, i8, i32, i32, i8, double }
%struct.AutoVacOpts = type { i8, i32, i32, i32, i32, i32, i32, i32, i32, i32, i32, i32, i32, double, double, double, double }

@CurrentMemoryContext = external global ptr, align 8
@.str = private unnamed_addr constant [14 x i8] c"Table rewrite\00", align 1
@.str.1 = private unnamed_addr constant [27 x i8] c"Rewrite / Unresolved ctids\00", align 1
@.str.2 = private unnamed_addr constant [29 x i8] c"Rewrite / Old to new tid map\00", align 1
@wal_level = external global i32, align 4
@.str.22 = private unnamed_addr constant [24 x i8] c"Logical rewrite mapping\00", align 1

; Function Attrs: nounwind uwtable
define internal void @logical_begin_heap_rewrite(ptr noundef %0) #0 {
  %2 = alloca ptr, align 8
  %3 = alloca %struct.HASHCTL, align 8
  %4 = alloca i32, align 4
  %5 = alloca i32, align 4
  store ptr %0, ptr %2, align 8
  call void @llvm.lifetime.start.p0(i64 96, ptr %3) #10
  call void @llvm.lifetime.start.p0(i64 4, ptr %4) #10
  %6 = load i32, ptr @wal_level, align 4
  %7 = icmp sge i32 %6, 2
  br i1 %7, label %8, label %83

8:                                                ; preds = %1
  %9 = load ptr, ptr %2, align 8
  %10 = getelementptr inbounds nuw %struct.RewriteStateData, ptr %9, i32 0, i32 0
  %11 = load ptr, ptr %10, align 8
  %12 = getelementptr inbounds nuw %struct.RelationData, ptr %11, i32 0, i32 13
  %13 = load ptr, ptr %12, align 8
  %14 = getelementptr inbounds nuw %struct.FormData_pg_class, ptr %13, i32 0, i32 15
  %15 = load i8, ptr %14, align 2
  %16 = sext i8 %15 to i32
  %17 = icmp eq i32 %16, 112
  br i1 %17, label %18, label %83

18:                                               ; preds = %8
  %19 = load i32, ptr @wal_level, align 4
  %20 = icmp sge i32 %19, 1
  br i1 %20, label %35, label %21

21:                                               ; preds = %18
  %22 = load ptr, ptr %2, align 8
  %23 = getelementptr inbounds nuw %struct.RewriteStateData, ptr %22, i32 0, i32 0
  %24 = load ptr, ptr %23, align 8
  %25 = getelementptr inbounds nuw %struct.RelationData, ptr %24, i32 0, i32 9
  %26 = load i32, ptr %25, align 8
  %27 = icmp eq i32 %26, 0
  br i1 %27, label %28, label %83

28:                                               ; preds = %21
  %29 = load ptr, ptr %2, align 8
  %30 = getelementptr inbounds nuw %struct.RewriteStateData, ptr %29, i32 0, i32 0
  %31 = load ptr, ptr %30, align 8
  %32 = getelementptr inbounds nuw %struct.RelationData, ptr %31, i32 0, i32 11
  %33 = load i32, ptr %32, align 8
  %34 = icmp eq i32 %33, 0
  br i1 %34, label %35, label %83

35:                                               ; preds = %28, %18
  %36 = load ptr, ptr %2, align 8
  %37 = getelementptr inbounds nuw %struct.RewriteStateData, ptr %36, i32 0, i32 0
  %38 = load ptr, ptr %37, align 8
  %39 = call zeroext i1 @IsCatalogRelation(ptr noundef %38)
  br i1 %39, label %81, label %40

40:                                               ; preds = %35
  %41 = load ptr, ptr %2, align 8
  %42 = getelementptr inbounds nuw %struct.RewriteStateData, ptr %41, i32 0, i32 0
  %43 = load ptr, ptr %42, align 8
  %44 = getelementptr inbounds nuw %struct.RelationData, ptr %43, i32 0, i32 45
  %45 = load ptr, ptr %44, align 8
  %46 = icmp ne ptr %45, null
  br i1 %46, label %47, label %77

47:                                               ; preds = %40
  %48 = load ptr, ptr %2, align 8
  %49 = getelementptr inbounds nuw %struct.RewriteStateData, ptr %48, i32 0, i32 0
  %50 = load ptr, ptr %49, align 8
  %51 = getelementptr inbounds nuw %struct.RelationData, ptr %50, i32 0, i32 13
  %52 = load ptr, ptr %51, align 8
  %53 = getelementptr inbounds nuw %struct.FormData_pg_class, ptr %52, i32 0, i32 16
  %54 = load i8, ptr %53, align 1
  %55 = sext i8 %54 to i32
  %56 = icmp eq i32 %55, 114
  br i1 %56, label %67, label %57

57:                                               ; preds = %47
  %58 = load ptr, ptr %2, align 8
  %59 = getelementptr inbounds nuw %struct.RewriteStateData, ptr %58, i32 0, i32 0
  %60 = load ptr, ptr %59, align 8
  %61 = getelementptr inbounds nuw %struct.RelationData, ptr %60, i32 0, i32 13
  %62 = load ptr, ptr %61, align 8
  %63 = getelementptr inbounds nuw %struct.FormData_pg_class, ptr %62, i32 0, i32 16
  %64 = load i8, ptr %63, align 1
  %65 = sext i8 %64 to i32
  %66 = icmp eq i32 %65, 109
  br i1 %66, label %67, label %77

67:                                               ; preds = %57, %47
  %68 = load ptr, ptr %2, align 8
  %69 = getelementptr inbounds nuw %struct.RewriteStateData, ptr %68, i32 0, i32 0
  %70 = load ptr, ptr %69, align 8
  %71 = getelementptr inbounds nuw %struct.RelationData, ptr %70, i32 0, i32 45
  %72 = load ptr, ptr %71, align 8
  %73 = getelementptr inbounds nuw %struct.StdRdOptions, ptr %72, i32 0, i32 4
  %74 = load i8, ptr %73, align 8, !range !4, !noundef !5
  %75 = trunc i8 %74 to i1
  %76 = zext i1 %75 to i32
  br label %78

77:                                               ; preds = %57, %40
  br label %78

78:                                               ; preds = %77, %67
  %79 = phi i32 [ %76, %67 ], [ 0, %77 ]
  %80 = icmp ne i32 %79, 0
  br label %81

81:                                               ; preds = %78, %35
  %82 = phi i1 [ true, %35 ], [ %80, %78 ]
  br label %83

83:                                               ; preds = %81, %28, %21, %8, %1
  %84 = phi i1 [ false, %28 ], [ false, %21 ], [ false, %8 ], [ false, %1 ], [ %82, %81 ]
  %85 = load ptr, ptr %2, align 8
  %86 = getelementptr inbounds nuw %struct.RewriteStateData, ptr %85, i32 0, i32 5
  %87 = zext i1 %84 to i8
  store i8 %87, ptr %86, align 4
  %88 = load ptr, ptr %2, align 8
  %89 = getelementptr inbounds nuw %struct.RewriteStateData, ptr %88, i32 0, i32 5
  %90 = load i8, ptr %89, align 4, !range !4, !noundef !5
  %91 = trunc i8 %90 to i1
  br i1 %91, label %93, label %92

92:                                               ; preds = %83
  store i32 1, ptr %5, align 4
  br label %117

93:                                               ; preds = %83
  call void @ProcArrayGetReplicationSlotXmin(ptr noundef null, ptr noundef %4)
  %94 = load i32, ptr %4, align 4
  %95 = icmp eq i32 %94, 0
  br i1 %95, label %96, label %99

96:                                               ; preds = %93
  %97 = load ptr, ptr %2, align 8
  %98 = getelementptr inbounds nuw %struct.RewriteStateData, ptr %97, i32 0, i32 5
  store i8 0, ptr %98, align 4
  store i32 1, ptr %5, align 4
  br label %117

99:                                               ; preds = %93
  %100 = load i32, ptr %4, align 4
  %101 = load ptr, ptr %2, align 8
  %102 = getelementptr inbounds nuw %struct.RewriteStateData, ptr %101, i32 0, i32 8
  store i32 %100, ptr %102, align 8
  %103 = call i64 @GetXLogInsertRecPtr()
  %104 = load ptr, ptr %2, align 8
  %105 = getelementptr inbounds nuw %struct.RewriteStateData, ptr %104, i32 0, i32 11
  store i64 %103, ptr %105, align 8
  %106 = load ptr, ptr %2, align 8
  %107 = getelementptr inbounds nuw %struct.RewriteStateData, ptr %106, i32 0, i32 15
  store i32 0, ptr %107, align 8
  %108 = getelementptr inbounds nuw %struct.HASHCTL, ptr %3, i32 0, i32 4
  store i64 4, ptr %108, align 8
  %109 = getelementptr inbounds nuw %struct.HASHCTL, ptr %3, i32 0, i32 5
  store i64 1064, ptr %109, align 8
  %110 = load ptr, ptr %2, align 8
  %111 = getelementptr inbounds nuw %struct.RewriteStateData, ptr %110, i32 0, i32 10
  %112 = load ptr, ptr %111, align 8
  %113 = getelementptr inbounds nuw %struct.HASHCTL, ptr %3, i32 0, i32 10
  store ptr %112, ptr %113, align 8
  %114 = call ptr @hash_create(ptr noundef @.str.22, i64 noundef 128, ptr noundef %3, i32 noundef 1064)
  %115 = load ptr, ptr %2, align 8
  %116 = getelementptr inbounds nuw %struct.RewriteStateData, ptr %115, i32 0, i32 14
  store ptr %114, ptr %116, align 8
  store i32 0, ptr %5, align 4
  br label %117

117:                                              ; preds = %99, %96, %92
  call void @llvm.lifetime.end.p0(i64 4, ptr %4) #10
  call void @llvm.lifetime.end.p0(i64 96, ptr %3) #10
  %118 = load i32, ptr %5, align 4
  switch i32 %118, label %120 [
    i32 0, label %119
    i32 1, label %119
  ]

119:                                              ; preds = %117, %117
  ret void

120:                                              ; preds = %117
  unreachable
}

; Function Attrs: inlinehint nounwind uwtable
define internal ptr @MemoryContextSwitchTo(ptr noundef %0) #3 {
  %2 = alloca ptr, align 8
  %3 = alloca ptr, align 8
  store ptr %0, ptr %2, align 8
  call void @llvm.lifetime.start.p0(i64 8, ptr %3) #10
  %4 = load ptr, ptr @CurrentMemoryContext, align 8
  store ptr %4, ptr %3, align 8
  %5 = load ptr, ptr %2, align 8
  store ptr %5, ptr @CurrentMemoryContext, align 8
  %6 = load ptr, ptr %3, align 8
  call void @llvm.lifetime.end.p0(i64 8, ptr %3) #10
  ret ptr %6
}

; Function Attrs: nounwind uwtable
define dso_local ptr @begin_heap_rewrite(ptr noundef %0, ptr noundef %1, i32 noundef %2, i32 noundef %3, i32 noundef %4) #0 {
  %6 = alloca ptr, align 8
  %7 = alloca ptr, align 8
  %8 = alloca i32, align 4
  %9 = alloca i32, align 4
  %10 = alloca i32, align 4
  %11 = alloca ptr, align 8
  %12 = alloca ptr, align 8
  %13 = alloca ptr, align 8
  %14 = alloca %struct.HASHCTL, align 8
  %15 = alloca i32, align 4
  store ptr %0, ptr %6, align 8
  store ptr %1, ptr %7, align 8
  store i32 %2, ptr %8, align 4
  store i32 %3, ptr %9, align 4
  store i32 %4, ptr %10, align 4
  call void @llvm.lifetime.start.p0(i64 8, ptr %11) #10
  call void @llvm.lifetime.start.p0(i64 8, ptr %12) #10
  call void @llvm.lifetime.start.p0(i64 8, ptr %13) #10
  call void @llvm.lifetime.start.p0(i64 96, ptr %14) #10
  br label %16

16:                                               ; preds = %5
  br label %17

17:                                               ; preds = %16
  br label %18

18:                                               ; preds = %17
  store i32 1, ptr %15, align 4
  %19 = load ptr, ptr @CurrentMemoryContext, align 8
  %20 = call ptr @AllocSetContextCreateInternal(ptr noundef %19, ptr noundef @.str, i64 noundef 0, i64 noundef 8192, i64 noundef 8388608)
  store ptr %20, ptr %12, align 8
  %21 = load ptr, ptr %12, align 8
  %22 = call ptr @MemoryContextSwitchTo(ptr noundef %21)
  store ptr %22, ptr %13, align 8
  %23 = call ptr @palloc0(i64 noundef 104)
  store ptr %23, ptr %11, align 8
  %24 = load ptr, ptr %6, align 8
  %25 = load ptr, ptr %11, align 8
  %26 = getelementptr inbounds nuw %struct.RewriteStateData, ptr %25, i32 0, i32 0
  store ptr %24, ptr %26, align 8
  %27 = load ptr, ptr %7, align 8
  %28 = load ptr, ptr %11, align 8
  %29 = getelementptr inbounds nuw %struct.RewriteStateData, ptr %28, i32 0, i32 1
  store ptr %27, ptr %29, align 8
  %30 = load ptr, ptr %11, align 8
  %31 = getelementptr inbounds nuw %struct.RewriteStateData, ptr %30, i32 0, i32 3
  store ptr null, ptr %31, align 8
  %32 = load ptr, ptr %7, align 8
  %33 = call i32 @RelationGetNumberOfBlocksInFork(ptr noundef %32, i32 noundef 0)
  %34 = load ptr, ptr %11, align 8
  %35 = getelementptr inbounds nuw %struct.RewriteStateData, ptr %34, i32 0, i32 4
  store i32 %33, ptr %35, align 8
  %36 = load i32, ptr %8, align 4
  %37 = load ptr, ptr %11, align 8
  %38 = getelementptr inbounds nuw %struct.RewriteStateData, ptr %37, i32 0, i32 6
  store i32 %36, ptr %38, align 8
  %39 = load i32, ptr %9, align 4
  %40 = load ptr, ptr %11, align 8
  %41 = getelementptr inbounds nuw %struct.RewriteStateData, ptr %40, i32 0, i32 7
  store i32 %39, ptr %41, align 4
  %42 = load i32, ptr %10, align 4
  %43 = load ptr, ptr %11, align 8
  %44 = getelementptr inbounds nuw %struct.RewriteStateData, ptr %43, i32 0, i32 9
  store i32 %42, ptr %44, align 4
  %45 = load ptr, ptr %12, align 8
  %46 = load ptr, ptr %11, align 8
  %47 = getelementptr inbounds nuw %struct.RewriteStateData, ptr %46, i32 0, i32 10
  store ptr %45, ptr %47, align 8
  %48 = load ptr, ptr %7, align 8
  %49 = call ptr @smgr_bulk_start_rel(ptr noundef %48, i32 noundef 0)
  %50 = load ptr, ptr %11, align 8
  %51 = getelementptr inbounds nuw %struct.RewriteStateData, ptr %50, i32 0, i32 2
  store ptr %49, ptr %51, align 8
  %52 = getelementptr inbounds nuw %struct.HASHCTL, ptr %14, i32 0, i32 4
  store i64 12, ptr %52, align 8
  %53 = getelementptr inbounds nuw %struct.HASHCTL, ptr %14, i32 0, i32 5
  store i64 32, ptr %53, align 8
  %54 = load ptr, ptr %11, align 8
  %55 = getelementptr inbounds nuw %struct.RewriteStateData, ptr %54, i32 0, i32 10
  %56 = load ptr, ptr %55, align 8
  %57 = getelementptr inbounds nuw %struct.HASHCTL, ptr %14, i32 0, i32 10
  store ptr %56, ptr %57, align 8
  %58 = call ptr @hash_create(ptr noundef @.str.1, i64 noundef 128, ptr noundef %14, i32 noundef 1064)
  %59 = load ptr, ptr %11, align 8
  %60 = getelementptr inbounds nuw %struct.RewriteStateData, ptr %59, i32 0, i32 12
  store ptr %58, ptr %60, align 8
  %61 = getelementptr inbounds nuw %struct.HASHCTL, ptr %14, i32 0, i32 5
  store i64 20, ptr %61, align 8
  %62 = call ptr @hash_create(ptr noundef @.str.2, i64 noundef 128, ptr noundef %14, i32 noundef 1064)
  %63 = load ptr, ptr %11, align 8
  %64 = getelementptr inbounds nuw %struct.RewriteStateData, ptr %63, i32 0, i32 13
  store ptr %62, ptr %64, align 8
  %65 = load ptr, ptr %13, align 8
  %66 = call ptr @MemoryContextSwitchTo(ptr noundef %65)
  %67 = load ptr, ptr %11, align 8
  call void @logical_begin_heap_rewrite(ptr noundef %67)
  %68 = load ptr, ptr %11, align 8
  call void @llvm.lifetime.end.p0(i64 96, ptr %14) #10
  call void @llvm.lifetime.end.p0(i64 8, ptr %13) #10
  call void @llvm.lifetime.end.p0(i64 8, ptr %12) #10
  call void @llvm.lifetime.end.p0(i64 8, ptr %11) #10
  ret ptr %68
}