; Function Attrs: nounwind uwtable
define dso_local noundef ptr @begin_heap_rewrite(ptr noundef %0, ptr noundef %1, i32 noundef %2, i32 noundef %3, i32 noundef %4) local_unnamed_addr #0 {
  %6 = alloca %struct.HASHCTL, align 8
  %7 = alloca i32, align 4
  %8 = alloca %struct.HASHCTL, align 8
  call void @llvm.lifetime.start.p0(i64 96, ptr nonnull %8) #13
  %9 = load ptr, ptr @CurrentMemoryContext, align 8
  %10 = tail call ptr @AllocSetContextCreateInternal(ptr noundef %9, ptr noundef nonnull @.str, i64 noundef 0, i64 noundef 8192, i64 noundef 8388608) #13
  %11 = load ptr, ptr @CurrentMemoryContext, align 8
  store ptr %10, ptr @CurrentMemoryContext, align 8
  %12 = tail call ptr @palloc0(i64 noundef 104) #13
  store ptr %0, ptr %12, align 8
  %13 = getelementptr inbounds nuw i8, ptr %12, i64 8
  store ptr %1, ptr %13, align 8
  %14 = getelementptr inbounds nuw i8, ptr %12, i64 24
  store ptr null, ptr %14, align 8
  %15 = tail call i32 @RelationGetNumberOfBlocksInFork(ptr noundef %1, i32 noundef 0) #13
  %16 = getelementptr inbounds nuw i8, ptr %12, i64 32
  store i32 %15, ptr %16, align 8
  %17 = getelementptr inbounds nuw i8, ptr %12, i64 40
  store i32 %2, ptr %17, align 8
  %18 = getelementptr inbounds nuw i8, ptr %12, i64 44
  store i32 %3, ptr %18, align 4
  %19 = getelementptr inbounds nuw i8, ptr %12, i64 52
  store i32 %4, ptr %19, align 4
  %20 = getelementptr inbounds nuw i8, ptr %12, i64 56
  store ptr %10, ptr %20, align 8
  %21 = tail call ptr @smgr_bulk_start_rel(ptr noundef %1, i32 noundef 0) #13
  %22 = getelementptr inbounds nuw i8, ptr %12, i64 16
  store ptr %21, ptr %22, align 8
  %23 = getelementptr inbounds nuw i8, ptr %8, i64 32
  store i64 12, ptr %23, align 8
  %24 = getelementptr inbounds nuw i8, ptr %8, i64 40
  store i64 32, ptr %24, align 8
  %25 = load ptr, ptr %20, align 8
  %26 = getelementptr inbounds nuw i8, ptr %8, i64 80
  store ptr %25, ptr %26, align 8
  %27 = call ptr @hash_create(ptr noundef nonnull @.str.1, i64 noundef 128, ptr noundef nonnull %8, i32 noundef 1064) #13
  %28 = getelementptr inbounds nuw i8, ptr %12, i64 72
  store ptr %27, ptr %28, align 8
  store i64 20, ptr %24, align 8
  %29 = call ptr @hash_create(ptr noundef nonnull @.str.2, i64 noundef 128, ptr noundef nonnull %8, i32 noundef 1064) #13
  %30 = getelementptr inbounds nuw i8, ptr %12, i64 80
  store ptr %29, ptr %30, align 8
  store ptr %11, ptr @CurrentMemoryContext, align 8
  call void @llvm.lifetime.start.p0(i64 96, ptr nonnull %6) #13
  call void @llvm.lifetime.start.p0(i64 4, ptr nonnull %7) #13
  %31 = load i32, ptr @wal_level, align 4
  %32 = icmp sgt i32 %31, 1
  br i1 %32, label %33, label %.thread.i

33:                                               ; preds = %5
  %34 = load ptr, ptr %12, align 8
  %35 = getelementptr inbounds nuw i8, ptr %34, i64 56
  %36 = load ptr, ptr %35, align 8
  %37 = getelementptr inbounds nuw i8, ptr %36, i64 114
  %38 = load i8, ptr %37, align 2
  %39 = icmp eq i8 %38, 112
  br i1 %39, label %40, label %.thread.i

40:                                               ; preds = %33
  %41 = call zeroext i1 @IsCatalogRelation(ptr noundef nonnull %34) #13
  br i1 %41, label %.thread18.i, label %43

.thread18.i:                                      ; preds = %40
  %42 = getelementptr inbounds nuw i8, ptr %12, i64 36
  store i8 1, ptr %42, align 4
  br label %57

43:                                               ; preds = %40
  %44 = load ptr, ptr %12, align 8
  %45 = getelementptr inbounds nuw i8, ptr %44, i64 304
  %46 = load ptr, ptr %45, align 8
  %.not.i = icmp eq ptr %46, null
  br i1 %.not.i, label %.thread.i, label %47

47:                                               ; preds = %43
  %48 = getelementptr inbounds nuw i8, ptr %44, i64 56
  %49 = load ptr, ptr %48, align 8
  %50 = getelementptr inbounds nuw i8, ptr %49, i64 115
  %51 = load i8, ptr %50, align 1
  switch i8 %51, label %.thread.i [
    i8 114, label %53
    i8 109, label %53
  ]

.thread.i:                                        ; preds = %47, %43, %33, %5
  %52 = getelementptr inbounds nuw i8, ptr %12, i64 36
  store i8 0, ptr %52, align 4
  br label %logical_begin_heap_rewrite.exit

53:                                               ; preds = %47, %47
  %54 = getelementptr inbounds nuw i8, ptr %46, i64 104
  %55 = load i8, ptr %54, align 8, !range !4, !noundef !5
  %.not19.i = icmp eq i8 %55, 0
  %56 = getelementptr inbounds nuw i8, ptr %12, i64 36
  store i8 %55, ptr %56, align 4
  br i1 %.not19.i, label %logical_begin_heap_rewrite.exit, label %57

57:                                               ; preds = %53, %.thread18.i
  %58 = phi ptr [ %42, %.thread18.i ], [ %56, %53 ]
  call void @ProcArrayGetReplicationSlotXmin(ptr noundef null, ptr noundef nonnull %7) #13
  %59 = load i32, ptr %7, align 4
  %60 = icmp eq i32 %59, 0
  br i1 %60, label %61, label %62

61:                                               ; preds = %57
  store i8 0, ptr %58, align 4
  br label %logical_begin_heap_rewrite.exit

62:                                               ; preds = %57
  %63 = getelementptr inbounds nuw i8, ptr %12, i64 48
  store i32 %59, ptr %63, align 8
  %64 = call i64 @GetXLogInsertRecPtr() #13
  %65 = getelementptr inbounds nuw i8, ptr %12, i64 64
  store i64 %64, ptr %65, align 8
  %66 = getelementptr inbounds nuw i8, ptr %12, i64 96
  store i32 0, ptr %66, align 8
  %67 = getelementptr inbounds nuw i8, ptr %6, i64 32
  store i64 4, ptr %67, align 8
  %68 = getelementptr inbounds nuw i8, ptr %6, i64 40
  store i64 1064, ptr %68, align 8
  %69 = load ptr, ptr %20, align 8
  %70 = getelementptr inbounds nuw i8, ptr %6, i64 80
  store ptr %69, ptr %70, align 8
  %71 = call ptr @hash_create(ptr noundef nonnull @.str.22, i64 noundef 128, ptr noundef nonnull %6, i32 noundef 1064) #13
  %72 = getelementptr inbounds nuw i8, ptr %12, i64 88
  store ptr %71, ptr %72, align 8
  br label %logical_begin_heap_rewrite.exit

logical_begin_heap_rewrite.exit:                  ; preds = %.thread.i, %53, %61, %62
  call void @llvm.lifetime.end.p0(i64 4, ptr nonnull %7) #13
  call void @llvm.lifetime.end.p0(i64 96, ptr nonnull %6) #13
  call void @llvm.lifetime.end.p0(i64 96, ptr nonnull %8) #13
  ret ptr %12
}